(dp0
Veast boston
p1
(lp2
Vlogan airport
p3
aVthe blue line
p4
aVboston harbor
p5
aVcentral
p6
aVcvs
p7
aVtd garden
p8
aVsoutheast asia
p9
aVsouth america
p10
aVnorth
p11
aVeastie
p12
aVeast
p13
aVthe phanton gourmet
p14
asVwest end
p15
(lp16
Vbeacon hill
p17
aVthe charles river
p18
aVesplanade
p19
aVmass general hospital
p20
aVwaterfront
p21
aVnorth end
p22
aVboston common
p23
asVlongwood medical area
p24
(lp25
sVsouth boston
p26
(lp27
Vseaport
p28
aVcastle island
p29
aVcarson beach
p30
aVbroadway
p31
aVbcec
p32
aVcambridge
p33
aVsouthie
p34
aVsouth boston waterfront
p35
aVuber
p36
aVthe boston convention center
p37
aVseaport district
p38
aVthe boston convention
p39
aVtarget
p40
aVwest broadway
p41
aVbest buy
p42
aVthe south boston
p43
aVeast
p44
aVthe seaport district
p45
aVwest
p46
aVboston convention & exhibition center
p47
aVsouthie pride "
p48
aVboston convention
p49
aVlogan airport
p50
aVsouth bay shopping center
p51
aVtelegraph hill
p52
aVharvard
p53
aVsouth end
p54
aVsouth station
p55
aVchinatown
p56
aVmit
p57
aVbeacon hill
p58
asVmission hill
p59
(lp60
Vthe museum of fine arts
p61
aVlongwood
p62
aVnortheastern university
p63
aVpenguin pizza
p64
aVbrigham
p65
aVthe longwood medical area
p66
aVfenway
p67
aVjamaica
p68
aVcopley plaza
p69
aVfenway park
p70
asVbrighton
p71
(lp72
Vboston college
p73
aVboston university
p74
aVallston
p75
aVharvard square
p76
aVcambridge
p77
aVbrookline
p78
aVbrighton center
p79
aVwashington square
p80
aVwhole foods
p81
aVharvard
p82
aVthe charles river
p83
aVharvard university
p84
aVfriendly
p85
aVbc
p86
aVthe green line
p87
aVcleveland circle
p88
aVwashington
p89
aVgreen
p90
aVcleveland
p91
aVymca
p92
aVthai
p93
aVsushi
p94
aVthe boston college
p95
aVchestnut hill reservoir
p96
asVbay village
p97
(lp98
Varlington
p99
aVback bay
p100
asVdorchester
p101
(lp102
Vjfk
p103
aVumass
p104
aVdorchester avenue
p105
aVcambridge
p106
aVnew england
p107
aVumass boston
p108
aVboston harbor
p109
aVstarbucks
p110
aVunited states
p111
aVireland
p112
aVvietnam
p113
aVmit
p114
aVlower mills
p115
aVmassachusetts
p116
aVlogan airport
p117
aVneighborhood
p118
aVcaribbean
p119
aVthe carribean and cape verde
p120
aVashmont grill
p121
aVdot "
p122
aVcastle island
p123
aVeastern europe
p124
aVtavolo restaurant
p125
aVsavin hill
p126
aVduncan donut
p127
aVkennedy library
p128
aVdimitrios restaurant
p129
aVitaly
p130
aVsouth boston
p131
aVpizza
p132
asVmattapan
p133
(lp134
Vdowntown boston
p135
aVblue hills ski area
p136
asVdowntown
p137
(lp138
Vbeacon hill
p139
aVboston common
p140
aVfaneuil hall
p141
aVchinatown
p142
aVthe boston common
p143
aVdowntown crossing
p144
aVmassachusetts
p145
aVthe theater district
p146
aVnewbury street
p147
aVthe north end
p148
aVbay village
p149
aVmacy
p150
aVthe public garden
p151
aVfinancial district
p152
aVh&m
p153
aVhaymarket square
p154
aVthe financial district
p155
aVtufts medical center
p156
aVquincy market
p157
aVsip wine
p158
aVhaymarket
p159
aVstate house
p160
aVceltics
p161
aVprimark
p162
aVthe red sox
p163
aVtheater district
p164
aVwaterfront
p165
asVhyde park
p166
(lp167
sVwest roxbury
p168
(lp169
sVbeacon hill
p170
(lp171
Vwhole foods
p172
aVthe boston common
p173
aVboston common
p174
aVcambridge street
p175
aVbeacon street
p176
aVthe charles river
p177
aVback bay
p178
aVmass general hospital
p179
aVcvs
p180
aVboston commons
p181
aVthe massachusetts state house
p182
aVthe charles river esplanade
p183
aVnewbury
p184
aVnewbury street
p185
aVthe freedom trail
p186
aVthe state house
p187
aVcambridge
p188
aVbowdoin street
p189
aVstorrow drive
p190
aVtd garden
p191
aVmgh
p192
aVstate house
p193
aVthe public gardens
p194
aVmassachusetts
p195
aVthe public garden
p196
aVhaymarket
p197
aVesplanade
p198
aVthe beacon hill
p199
aVfaneuil hall
p200
aVthe north end
p201
aVfenway park
p202
aVcopley square
p203
asVcharlestown
p204
(lp205
Vthe navy yard
p206
aVcambridge
p207
aVbunker hill monument
p208
aVthe freedom trail
p209
aVthe bunker hill monument
p210
aVwhole foods
p211
aVtd garden
p212
aVnorth end
p213
aVnavy
p214
aVorange
p215
aVthe north end
p216
aVatm
p217
aVassembly square
p218
aVasian house
p219
asVsouth boston waterfront
p220
(lp221
Vseaport
p222
aVfort point
p223
aVthe seaport district
p224
asVallston
p225
(lp226
Vcambridge
p227
aVmit
p228
aVharvard
p229
aVharvard square
p230
aVboston university
p231
aVbrookline
p232
aVcentral square
p233
aVbrighton
p234
aVcharles river
p235
aVkendall square
p236
aVnorth of boston proper
p237
aVboston college
p238
aVbu
p239
aVuber
p240
aVcommonwealth
p241
aVallston village
p242
aVlyft
p243
aVstar market
p244
aVindia
p245
aVthe charles river
p246
asVroxbury
p247
(lp248
Vfort hill
p249
aVymca
p250
aVsouth end
p251
aVthe south end
p252
aVnortheastern university
p253
aVblue hill ave
p254
aVdudley square
p255
aVwalgreens
p256
aVroxbury crossing
p257
aVsuper stop & shop
p258
aVbank of america
p259
aVhighland park
p260
aVboston police department
p261
aVjamaica
p262
aVthe dillaway thomas house
p263
aVdudley
p264
aVthe siege of boston
p265
aVdowntown boston
p266
aVhighland park / fort hill
p267
aVthe prudential center
p268
aVcentre street
p269
aVpeaceful ,
p270
aVroxbury latin school
p271
aVrockledge
p272
aVthe american christmas
p273
asVleather district
p274
(lp275
Vchinatown
p276
asVsouth end
p277
(lp278
Vthe south end
p279
aVcopley square
p280
aVtremont street
p281
aVthe back bay
p282
aVcolumbus avenue
p283
aVtoro
p284
aVback bay
p285
aVnewbury street
p286
aVboston \u2019s
p287
aVsouth
p288
aVtremont
p289
aVdartmouth street
p290
aVbeehive
p291
aVprudential
p292
aVnew england
p293
aVthe national register of historic places
p294
aVcopley
p295
aVthe prudential center
p296
aVprudential center
p297
aVthe boston common
p298
aVsouth station
p299
aVwhole foods
p300
aVus
p301
aVthe boston public library
p302
aVcambridge
p303
aVboston common
p304
aVfenway park
p305
aVnewbury
p306
aVchinatown
p307
aVbeacon hill
p308
aVpicco
p309
aVbarcelona
p310
aVboston common , chinatown
p311
aVflour
p312
aVwally
p313
aVthe parish cafe
p314
aVboston medical center
p315
aVdowntown crossing
p316
aVthe butcher shop
p317
aVdowntown boston
p318
aVwashington
p319
aVsiam
p320
aVthai
p321
aVthe render cafe
p322
aVhynes convention center
p323
aVberklee
p324
aVtufts medical center
p325
aVdeluxe
p326
aVfreedom trail
p327
asVjamaica plain
p328
(lp329
Vjp
p330
aVthe arnold arboretum
p331
aVjamaica
p332
aVjamaica pond
p333
aVcentre street
p334
aVwhole foods
p335
aVthe emerald necklace
p336
aVarboretum
p337
aVjp licks
p338
aVemerald necklace
p339
aVthe southwest corridor
p340
aVcambridge
p341
aVthe sam adams brewery
p342
aVorange
p343
aVthe orange line
p344
aVharvard
p345
aVback bay
p346
aVhubway
p347
aVthai
p348
aVforest hills
p349
aVthe jamaica pond
p350
aVbrookline
p351
aVthe franklin park zoo
p352
aVlongwood
p353
aVcentral park
p354
aVfenway park
p355
aVwhole foods market
p356
aVthe harvard arboretum
p357
aVhyde square
p358
aVeden
p359
aVula cafe
p360
aVthe museum of fine arts
p361
aVforest hills cemetery
p362
aVlongwood medical area
p363
aVbrooklyn
p364
aVamerica
p365
aVharvard university
p366
aVjamacia pond
p367
aVthe stony brook
p368
aVdowntown boston
p369
aVbella luna
p370
aVsouthwest corridor
p371
aVstop & shop
p372
aVjp pond
p373
aVgreen street
p374
aVthe jamaica plain
p375
aVbrewery
p376
aVfranklin
p377
aVthe southwest corridor park
p378
aVegleston square
p379
aVroxbury
p380
aVthe sam adams
p381
aVstony brook
p382
aVtres gatos
p383
aVcopley square
p384
aVcentre st.
p385
aVsouthwest corridor park
p386
aVwest roxbury
p387
asVchinatown
p388
(lp389
Vthe leather district
p390
aVwaterfront
p391
aVbeacon hill
p392
aVthe theater district
p393
aVsouth end
p394
asVnorth end
p395
(lp396
Vthe north end
p397
aVfaneuil hall
p398
aVnorth
p399
aVitaly
p400
aVhanover & prince streets
p401
aVst. leonard church
p402
aVthe freedom trail
p403
aVthe rose kennedy greenway
p404
aVquincy market
p405
aVwaterfront
p406
aVhouse
p407
aVold north church
p408
aVseaport
p409
aVnorth church
p410
asVfenway
p411
(lp412
Vfenway park
p413
aVnewbury street
p414
aVmuseum of fine arts
p415
aVback bay
p416
aVkenmore square
p417
aVcambridge
p418
aVboston university
p419
aVwhole foods
p420
aVboylston street
p421
aVharvard
p422
aVnortheastern university
p423
aVthe prudential center
p424
aVlongwood
p425
aVmit
p426
aVred sox
p427
aVberklee college of music
p428
aVnewbury
p429
aVsymphony hall
p430
aVharvard medical school
p431
aVthe museum of fine arts
p432
aVbu
p433
aVprudential
p434
aVstar market
p435
aVtarget
p436
aVhynes convention center
p437
aVcopley square
p438
aVlongwood medical
p439
aVbrookline
p440
aVberklee
p441
aVfenway stadium
p442
aVthe longwood medical / boston children \u2019s hospital
p443
aVthe back bay
p444
aVmfa
p445
aVprudential center
p446
aVuniversity
p447
aVboylston
p448
aVthai
p449
aVbeacon hill
p450
asVback bay
p451
(lp452
Vnewbury street
p453
aVcopley square
p454
aVthe charles river
p455
aVthe back bay
p456
aVthe prudential center
p457
aVnewbury
p458
aVthe boston public library
p459
aVfenway park
p460
aVbeacon hill
p461
aVthe south end
p462
aVcommonwealth avenue
p463
aVsouth end
p464
aVprudential center
p465
aVboston \u2019s
p466
aVthe charles river esplanade
p467
aVcopley place
p468
aVesplanade
p469
aVboston common
p470
aVmit
p471
aVboston commons
p472
aVthe freedom trail
p473
aVboylston street
p474
aVthe boston public garden
p475
aVharvard
p476
aVtrinity church
p477
aVthe public garden
p478
aVsymphony hall
p479
aVthe public gardens
p480
aVboylston
p481
aVprudential
p482
aVnew england
p483
aVbeacon street
p484
aVhynes convention center
p485
aVthe hynes convention center
p486
aVamerica
p487
aVback bay 's
p488
aVthe boston common
p489
aVfaneuil hall
p490
aVthe south end 's
p491
aVmass general hospital
p492
aVthe united states
p493
aVboylston streets
p494
aVsouth
p495
aVcambridge
p496
aVarlington
p497
aVthe boston commons
p498
aVcvs
p499
aVboston public garden
p500
aVboston university
p501
aVbackbay
p502
aVmarlborough street
p503
aVfenway
p504
asVroslindale
p505
(lp506
Vroslindale village
p507
aVroslindale square
p508
aVthe arnold arboretum
p509
aVemerald necklace
p510
aVwest roxbury
p511
aVharvard university
p512
as.