(dp0
Vmillsmont
p1
(lp2
sVadams point
p3
(lp4
Vlake merritt
p5
aVwhole foods
p6
aVsan francisco
p7
aVgrand lake theater
p8
aVpoint
p9
aVbart
p10
aVuptown
p11
aVlakeside park
p12
aVgrand avenue
p13
asVglenview
p14
(lp15
Vsan francisco
p16
aVlake merritt
p17
aVthai
p18
asVupper laurel
p19
(lp20
Vsan francisco
p21
asVlaurel
p22
(lp23
sVperalta-laney
p24
(lp25
sVivy hill
p26
(lp27
Vlake merritt
p28
asVclawson
p29
(lp30
Vwest oakland
p31
aVemeryville
p32
aVlake merritt
p33
aVsf
p34
aVbrown sugar kitchen
p35
aVsan francisco
p36
aVberkeley
p37
aVtarget
p38
aVbay area
p39
aVsafeway
p40
asVlakeshore
p41
(lp42
Vlake merritt
p43
aVgrand lake
p44
aVgrand lake theater
p45
aVsan francisco
p46
aVpiedmont
p47
aVsafeway
p48
asVlynn-highland park
p49
(lp50
sVfremont
p51
(lp52
Vfruitvale
p53
asVtemescal
p54
(lp55
Vburma superstar
p56
aVrockridge
p57
aVtelegraph avenue
p58
aVsan francisco
p59
aVtelegraph
p60
aVpiedmont
p61
asVwoodminster
p62
(lp63
sVschool
p64
(lp65
sVperalta-hacienda
p66
(lp67
sVtrestle glen
p68
(lp69
Vlake merritt
p70
aVglenview
p71
aVsan francisco
p72
aVthe bay area
p73
aVgrand lake theater
p74
asVshafter
p75
(lp76
Vrockridge
p77
aVsan francisco
p78
aVtemescal
p79
aVuc berkeley
p80
aVberkeley
p81
aVcalifornia
p82
aVcca
p83
asVjoaquin miller park
p84
(lp85
sVfairfax
p86
(lp87
sVmountain view cemetery
p88
(lp89
Vpiedmont avenue
p90
aVcollege
p91
asVoakmore
p92
(lp93
Vglenview
p94
aVmontclair village
p95
aVthe dimond district
p96
aVsan francisco
p97
aVpiedmont
p98
aVmontclair
p99
asVlongfellow
p100
(lp101
Vberkeley
p102
aVemeryville
p103
aVtemescal
p104
aVbart
p105
aVmichelin
p106
aVsan francisco
p107
aVnorth oakland
p108
aVsf
p109
aVsafeway
p110
aVthe bay area
p111
aVsan fransisco
p112
asVchinatown
p113
(lp114
Vlake merritt
p115
aVold oakland
p116
asVcrocker highland
p117
(lp118
Vlake merritt
p119
aVcrocker highlands
p120
asVsequoyah
p121
(lp122
sVcivic center
p123
(lp124
sVlakewide
p125
(lp126
Vlake merritt
p127
aVbart
p128
aVsan francisco
p129
aVthai
p130
asVeastmont
p131
(lp132
sVhiller highlands
p133
(lp134
sVupper dimond
p135
(lp136
sVmelrose
p137
(lp138
sVredwood heights
p139
(lp140
Vholy names university
p141
aVmills college
p142
aVredwood park
p143
asVmaxwell park
p144
(lp145
Vsan francisco
p146
aVmills college
p147
aVlake merritt
p148
asVrancho san antonio
p149
(lp150
sVpiedmont pines
p151
(lp152
Vmontclair village
p153
aVmontclair
p154
asVallendale
p155
(lp156
sVhoover-foster
p157
(lp158
Vsan francisco
p159
aVlake merritt
p160
aVwest oakland
p161
aVuptown
p162
asVpanoramic hill
p163
(lp164
sVmills college
p165
(lp166
sVmerriwood
p167
(lp168
Vmontclair
p169
aVmontclair village
p170
aVthe oakland hills
p171
asVgaskill
p172
(lp173
Vemeryville
p174
aVberkeley
p175
asVupper rockridge
p176
(lp177
Vsan francisco
p178
aVberkeley
p179
aVbart
p180
aVthe east bay
p181
aVcollege avenue
p182
aVrockridge
p183
aVoliveto
p184
aVthe oakland hills
p185
aVtemescal
p186
aVmontclair
p187
asVpiedmont avenue
p188
(lp189
Vsan francisco
p190
aVtemescal
p191
aVpiedmont
p192
aVbart
p193
aVgrand lake
p194
aVlake merritt
p195
aVberkeley
p196
aVthe east bay
p197
aVthe bay area
p198
aVcato
p199
aVnorth oakland
p200
asVharrington
p201
(lp202
sVoak center
p203
(lp204
Vsan francisco
p205
aVuber
p206
aVberkeley
p207
aVfusebox
p208
aVwest oakland
p209
aVsf
p210
asVmcclymonds
p211
(lp212
Vwest oakland
p213
asVclinton
p214
(lp215
Vsan francisco
p216
asVtuxedo
p217
(lp218
sVglen highlands
p219
(lp220
sVsan pablo gateway
p221
(lp222
Vsan francisco
p223
aVuptown
p224
aVparamount theaters
p225
aVjack london square
p226
aVwhole foods
p227
asVchabot park
p228
(lp229
Vsan leandro
p230
aVsan francisco
p231
aVthe oakland hills
p232
aVthe oakland zoo
p233
asVproduce and waterfront
p234
(lp235
Vsan francisco
p236
aVheinhold 's saloon
p237
asVgolden gate
p238
(lp239
Vemeryville
p240
aVsan francisco
p241
aVberkeley
p242
aVbay street
p243
aVthe powell street plaza
p244
aVthe emeryville tech and
p245
aVthe bay area
p246
aVenterprise rental car
p247
aVamtrak
p248
aVsf
p249
asVcleveland heights
p250
(lp251
Vlake merritt
p252
aVgrand lake
p253
aVsan francisco
p254
aVthe lake merritt
p255
aVlucky
p256
aVthe bay area
p257
asVgolf links
p258
(lp259
sVlincoln highlands
p260
(lp261
sVdurant manor
p262
(lp263
sVsobrante park
p264
(lp265
Vsan leandro
p266
asVpiedmont
p267
(lp268
Vsan francisco
p269
asVsheffield village
p270
(lp271
sVeast peralta
p272
(lp273
sVralph bunche
p274
(lp275
Vsan francisco
p276
aVwest oakland
p277
aVbart
p278
aVjack london square
p279
aVsf
p280
aV19th street
p281
aVgrand avenue
p282
asVold city-produce and waterfront
p283
(lp284
sVhighland terrace
p285
(lp286
Vsan francisco
p287
asVsanta fe
p288
(lp289
Vberkeley
p290
aVtemescal
p291
aVemeryville
p292
aVnorth oakland
p293
aVuc berkeley
p294
aVnobe
p295
aVrockridge
p296
asVcaballo hills
p297
(lp298
Vsan francisco
p299
asVreservoir hill-meadow brook
p300
(lp301
sVmosswood
p302
(lp303
Vtemescal
p304
aVbart
p305
aVberkeley
p306
aVrockridge
p307
asVshepherd canyon
p308
(lp309
Vmontclair village
p310
aVmontclair
p311
asVrockridge
p312
(lp313
Vcollege avenue
p314
aVuc berkeley
p315
aVbart
p316
aVthe bay area
p317
aVtemescal
p318
aVsafeway
p319
asVleona heights
p320
(lp321
sVeastmont hills
p322
(lp323
Vsan francisco
p324
aVeast oakland
p325
aVberkeley
p326
aVthe oakland hills
p327
aVthe bay area
p328
aVlake merritt
p329
asVprescott
p330
(lp331
Vwest oakland
p332
aVsan francisco
p333
aVbart
p334
aVbrown sugar kitchen
p335
asVwebster
p336
(lp337
sVmontclair
p338
(lp339
Vsan francisco
p340
aVmontclair village
p341
aVuc berkeley
p342
aVtemescal
p343
aVrockridge
p344
asVdimond
p345
(lp346
sVtoler heights
p347
(lp348
sVwaverly
p349
(lp350
sVsouth prescott
p351
(lp352
sVforestland
p353
(lp354
sVcoliseum
p355
(lp356
sVwoodland
p357
(lp358
sVskyline-hillcrest estates
p359
(lp360
sVjefferson
p361
(lp362
sVcrestmont
p363
(lp364
sVmerritt
p365
(lp366
Vlake merritt
p367
asVacorn-acorn industrial
p368
(lp369
sVsouth kennedy tract
p370
(lp371
sVclaremont
p372
(lp373
sVpill hill
p374
(lp375
Vlake merritt
p376
asVparadise park
p377
(lp378
Vberkeley
p379
aVemeryville
p380
asVhawthorne
p381
(lp382
sVbancroft business-havenscourt
p383
(lp384
sVbella vista
p385
(lp386
sVnorthgate
p387
(lp388
sVbartlett
p389
(lp390
sVfairview park
p391
(lp392
Vtemescal
p393
aVrockridge
p394
aVcollege avenue
p395
aVberkeley
p396
aVsan francisco
p397
aVuc berkeley
p398
aVelmwood
p399
aVbart
p400
aVsafeway
p401
aVwhole foods
p402
aVnorth oakland
p403
aVthe rockridge bart
p404
asVoakland ave-harrison st
p405
(lp406
Vlake merritt
p407
aVwhole foods
p408
aVbart
p409
aVbroadway
p410
asVdowntown
p411
(lp412
Vuptown
p413
aVlake merritt
p414
asVfrick
p415
(lp416
Vmills college
p417
asVgrand lake
p418
(lp419
Vlake merritt
p420
aVpiedmont avenue
p421
asVsausal creek
p422
(lp423
sVlake merritt
p424
(lp425
sVbushrod
p426
(lp427
Vberkeley
p428
aVtemescal
p429
aVrockridge
p430
aVsan francisco
p431
aVbart
p432
aVnorth oakland
p433
aVemeryville
p434
aVwhole foods
p435
aVburma superstar
p436
aVuc
p437
aVuc berkeley
p438
aVthe east bay
p439
aVnobe
p440
aVneighborhood
p441
aVelmwood
p442
aVthe bay area
p443
aVtelegraph avenue
p444
aVpizzaiolo
p445
aVtelegraph
p446
aVnomad
p447
aVjumpin
p448
as.