(dp0
Vinner richmond
p1
(lp2
Vgolden gate park
p3
aVpresidio
p4
aVthe golden gate bridge
p5
aVocean beach
p6
aVthe inner richmond
p7
aVrichmond
p8
aVsf
p9
aVsafeway
p10
aVthe conservatory of flowers
p11
aVgolden gate bridge
p12
aVgolden gate
p13
aVthai
p14
aVthe richmond district
p15
aVthe california academy of sciences
p16
aVusf
p17
aVlone mountain
p18
aVchinatown
p19
aVthe de young museum
p20
aVthe golden gate park
p21
aVwhole foods
p22
aVpresidio national park
p23
aVjapanese tea garden
p24
aVcalifornia academy of sciences
p25
aVbaker beach
p26
aVclement
p27
aVclement street
p28
aVthe deyoung museum
p29
aVburma superstar
p30
aVbalboa
p31
aVmountain lake park
p32
aVconservatory of flowers
p33
aVthe academy of sciences
p34
aVunion square
p35
aVdeyoung museum
p36
aVland
p37
aVacademy of sciences
p38
aVde young museum
p39
aVthe university of san francisco
p40
aVnopa
p41
aVcalifornia
p42
aVthe japanese tea garden
p43
aVups
p44
aVthe pacific ocean
p45
aVgolden
p46
aVarboretum
p47
aVuniversity of san francisco
p48
aVcalifornia street
p49
aVpacific ocean
p50
aVmission
p51
aVdivisadero
p52
aVstarbucks
p53
aVgiorgio \u2019s pizza
p54
aVfisherman
p55
aVmichelin
p56
aVgreen apple bookstore
p57
aVpanhandle
p58
aVsausalito
p59
aVtoy boat dessert
p60
aVsan francisco 's
p61
aVoutsidelands
p62
aVlive
p63
aVtarget
p64
aVuber
p65
aVwharf
p66
aVsee \u2019s candy
p67
aVtroya
p68
aVsan franciscan
p69
aVlaurel village
p70
aVdeyoung art museum
p71
asVfinancial district
p72
(lp73
Vunion square
p74
aVembarcadero
p75
aVmoscone center
p76
aVchinatown
p77
aVsoma
p78
aVnorth beach
p79
aVat&t park
p80
aVthe ferry building
p81
asVchinatown
p82
(lp83
Vunion square
p84
aVwharf
p85
aVthe financial district
p86
aVghirardelli square
p87
aVstockton
p88
aVpowell street cable car
p89
aVthe bay area
p90
aVsan francisco 's
p91
aVnorth beach
p92
aVthe maritime museum
p93
aValcatraz island
p94
aVgolden gate park
p95
aVcentral park
p96
aVcrocker galleria
p97
aVhaight - ashbury
p98
aVnew york 's
p99
aVfinancial district
p100
aVworldmark san francisco
p101
aVthe ferry building
p102
aValcatraz
p103
aVfisherman
p104
aVsf
p105
asVnoe valley
p106
(lp107
Vmission
p108
aVwhole foods
p109
aVsf
p110
aVsan francisco 's
p111
aV24th street
p112
aVtwin peaks
p113
aVbernal heights
p114
aVmission district
p115
aVthe mission district
p116
aVvalencia
p117
aVla ciccia
p118
aVvalencia street
p119
aVchurch street
p120
aVwhole foods market
p121
aVsilicon valley
p122
aVdolores park
p123
aVcastro district
p124
aVsafeway
p125
aVcalifornia
p126
aVdiamond heights
p127
aVthai
p128
aVwalgreens
p129
aVblue plate
p130
aVmuni
p131
aVvalencia corridor
p132
aVbart
p133
aVupper noe valley
p134
aVtennis
p135
aVunion square
p136
aVclipper street
p137
aVmission street
p138
aVthe bay area
p139
aVla boulange
p140
aVgolden gate park
p141
aVthe noe valley
p142
aVla nebbia
p143
aVphilz
p144
asVwestern addition
p145
(lp146
Valamo square
p147
aVnopa
p148
aVgolden gate park
p149
aVsf
p150
aVmission
p151
aVfillmore
p152
aVhayes valley
p153
aValamo square park
p154
aVpacific heights
p155
aVthe lower haight
p156
aVlower pacific heights
p157
aVjapantown
p158
aVdivisadero
p159
aVfillmore street
p160
aVmarina
p161
aVunion square
p162
aVpainted ladies
p163
aVsafeway
p164
aVhaight - ashbury
p165
aVdivisadero street
p166
aVsan francisco 's
p167
aVcivic center
p168
aVthe painted ladies
p169
aVbuena vista park
p170
aVtarget
p171
aVwhole foods
p172
aVgolden gate
p173
aVuber
p174
aVpanhandle
p175
aVthe golden gate bridge
p176
aVcalifornia
p177
aValamo
p178
aVbi - rite
p179
aVmill
p180
aVcastro
p181
aVcity hall
p182
aVwharf
p183
aVjapan
p184
aVpresidio
p185
aVbbq
p186
aVstarbucks
p187
aVduboce park
p188
aVwalgreens
p189
aVduboce triangle
p190
aVopera
p191
aVfisherman
p192
aVhouse
p193
aVbest buy
p194
aVbuena vista
p195
aVsoma
p196
aVthe civic center
p197
aVmarket street
p198
aVdivisidero
p199
aVsymphony
p200
aVhaight
p201
aVocean beach
p202
aVlittle star pizza
p203
aVpolk street
p204
aVthe opera house
p205
aVhaight street
p206
aVtwin peaks
p207
aVsf jazz center
p208
aVthai
p209
aVblue bottle
p210
aVla urbana
p211
aVpanhandle park
p212
aVsacramento
p213
aVopera house
p214
aVembarcadero
p215
aVthe fillmore district
p216
aVballet
p217
aVquick
p218
aVgreen chile kitchen
p219
aVpanhandle and golden gate
p220
aVstate bird provisions
p221
aVfulton
p222
aVthe pacific ocean
p223
aVritual coffee
p224
aVfillmore district
p225
aVcity
p226
aVuniversity of san francisco
p227
aVnopalito
p228
aVfull house
p229
aVupper haight
p230
aVgrocery store
p231
aVthe hayes valley
p232
aVpeet 's
p233
aVdivisadero corridor
p234
aVgolden gate bridge
p235
aVbi - rite market
p236
aVchinatown
p237
aVsushi
p238
aVlower haight
p239
aVsouvla
p240
aVfinancial district
p241
aVtarget ,
p242
aVwest
p243
aVnorth
p244
aVlaurel heights
p245
aVlaurel village
p246
aVthe corner store
p247
aVpac heights
p248
aVtrader joes
p249
aVgolden
p250
aVbar crudo
p251
aVabsinthe
p252
aVthe full house
p253
aVthe bay area
p254
aVmovie theater
p255
aVcorona heights
p256
aVsouth
p257
aVsan francisco \u2019s
p258
aVspqr
p259
aVtriangle
p260
aVbevmo ,
p261
aVgeary
p262
aVbart
p263
aVthe mission district
p264
aVdmv
p265
aVchurch
p266
aVcafe international
p267
aVchase
p268
aVnorth of panhandle
p269
aVboa
p270
aVtoronado
p271
aVthe divisadero corridor
p272
aVsuppenkuche
p273
aVduboce
p274
aVpacific
p275
aVmadrone
p276
aVthe golden gate
p277
aVminibar
p278
aValamo sq
p279
aVsmitten
p280
aVrosamunde
p281
aVthe " independent
p282
asVnorth beach
p283
(lp284
Vwharf
p285
aVchinatown
p286
aVcoit tower
p287
aVfisherman
p288
aVtelegraph hill
p289
aVunion square
p290
aVsan francisco 's
p291
aVitaly
p292
aVembarcadero
p293
aVwashington square
p294
aVlombard street
p295
aVsf
p296
aVlittle italy
p297
aVfinancial district
p298
aVthe financial district
p299
aVthe ferry building
p300
aVghirardelli square
p301
aVwashington square park
p302
aValcatraz
p303
aVpier
p304
aVsafeway
p305
aVsan franciscans
p306
aVnew york
p307
asVouter richmond
p308
(lp309
Vgolden gate park
p310
aVocean beach
p311
aVpresidio
p312
aVthe golden gate bridge
p313
aVrichmond
p314
aVbaker beach
p315
aVbalboa
p316
aVthe pacific ocean
p317
aVland
p318
aVgolden gate bridge
p319
aVsutro baths
p320
aVsf
p321
aVthe legion of honor
p322
aVthe legion of honor museum
p323
aVthe golden gate park
p324
aVbalboa street
p325
aVthe richmond district
p326
aVthe cliff house
p327
aVsausalito
p328
aVthe beach chalet
p329
aVlands end
p330
aVacademy of science
p331
aVthe de young museum
p332
aVsafeway
p333
aVlegion of honor
p334
aVthe outer richmond
p335
aVchina beach
p336
aVgolden gate
p337
aVunion square
p338
aVthe california academy of sciences
p339
aVthai
p340
aVmarin headlands
p341
aVlincoln park
p342
aVthe ocean beach
p343
aVnorth beach
p344
aVthe academy of sciences
p345
aVsan francisco 's
p346
aVsutro park
p347
aVchinatown
p348
aVuber
p349
aVsutro heights
p350
aVsutro heights park
p351
aVocean
p352
asVparkside
p353
(lp354
Vgolden gate park
p355
aVwest portal
p356
aVsunset
p357
aVtaraval
p358
aVocean beach
p359
aVsafeway
p360
aVlake merced
p361
aVsan francisco zoo
p362
aVsf
p363
aVthe sunset district
p364
aVthe outer sunset
p365
aVtaraval street
p366
aVembarcadero
p367
aVmuni
p368
aVwest portal avenue
p369
aVthe pacific ocean
p370
aVwest
p371
aVthai
p372
aVsan francisco 's
p373
aVzoo
p374
asVgolden gate park
p375
(lp376
Vocean beach
p377
asVlakeshore
p378
(lp379
Vlake merced
p380
aVocean beach
p381
aVstonestown galleria
p382
aVmerced manor
p383
asVnob hill
p384
(lp385
Vunion square
p386
aVchinatown
p387
aVnorth beach
p388
aVwharf
p389
aVsan francisco 's
p390
aVfisherman
p391
aVmarina
p392
aVpolk street
p393
aVchina
p394
aVsf
p395
aVcalifornia
p396
aVthe financial district
p397
aVthe fairmont hotel
p398
aVwhole foods
p399
aVsacramento
p400
aVfairmont
p401
aVcvs
p402
aVfort mason
p403
aVwalgreens
p404
aVthe cable car museum
p405
aVcable
p406
aVfinancial district
p407
aVsoma
p408
aVghirardelli square
p409
aVlombard street
p410
aVunion street
p411
aVcalifornia street
p412
aVpacific heights
p413
aVmission
p414
aVthe ferry building
p415
aVlombard
p416
aVcable car museum
p417
aVembarcadero
p418
aVle beau
p419
aVpresidio
p420
aVcable cars
p421
aVnob hill cafe
p422
aVitaly
p423
asVdiamond heights
p424
(lp425
Vnoe valley
p426
asVglen park
p427
(lp428
Vmission
p429
aVbart
p430
aVnoe valley
p431
aVsf
p432
aVthai
p433
aVthe city
p434
aVbernal heights
p435
aVle p'tit laurent
p436
aVglen park canyon
p437
aVla corneta
p438
aVsan francisco 's
p439
aVla ciccia
p440
asVexcelsior
p441
(lp442
Vmission
p443
aVbernal heights
p444
aVsf
p445
aVmclaren park
p446
aVmission street
p447
aVfrance
p448
aVsafeway
p449
aVthai
p450
aVneighborhood
p451
aVportola
p452
aVthe excelsior district
p453
aVwalgreens
p454
aVbreakfast at tiffany 's
p455
aVbart
p456
aVtiffany
p457
aVmcclaren park
p458
aVcity
p459
aVsan francisco 's
p460
aVmission st.
p461
aVsfo
p462
asVmarina
p463
(lp464
Vthe golden gate bridge
p465
aVchestnut street
p466
aVfort mason
p467
aVpresidio
p468
aVunion street
p469
aVfisherman
p470
aVwharf
p471
aVgolden gate bridge
p472
aVchestnut
p473
aVsf
p474
aVnorth beach
p475
aVpalace of fine arts
p476
aVthe palace of fine arts
p477
aVpacific heights
p478
aVcow hollow
p479
aVthe marina district
p480
aVchestnut and union
p481
aVpolk street
p482
aVwalgreens
p483
aVpalace of fine
p484
aVlombard street
p485
aVuber
p486
aVchrissy
p487
aVghirardelli square
p488
aVunion st.
p489
aVthe golden gate
p490
aVthe marina green
p491
aValcatraz
p492
aVpresidio park
p493
aVpier 39
p494
aVfillmore
p495
aVsan francisco bay
p496
aVsausalito
p497
aVaquatic park
p498
aVapple
p499
aVgolden gate
p500
aVgap
p501
aVapple store
p502
aVvallejo
p503
aVchinatown
p504
aVsan francisco 's
p505
aVcoit tower
p506
aVmarina green
p507
aVunion st
p508
asVpresidio heights
p509
(lp510
Vpresidio
p511
aVthe golden gate bridge
p512
aVgolden gate park
p513
aVlaurel village
p514
asVbernal heights
p515
(lp516
Vmission
p517
aVcortland
p518
aVbernal hill
p519
aVthe mission district
p520
aVcortland avenue
p521
aVsf
p522
aVbernal heights park
p523
aVsan francisco 's
p524
aVmission district
p525
aVbart
p526
aVnoe valley
p527
aVmission street
p528
aVvalencia
p529
aVamerica
p530
aVprecita park
p531
aVcity
p532
aVcortland street
p533
aVthe good life
p534
aVcalifornia
p535
aVprecita park cafe
p536
aVbernal hill park
p537
aVblue plate
p538
aVsafeway
p539
aVholly park
p540
aVthai
p541
aVus
p542
aVthe golden gate bridge
p543
aVfriendly
p544
aVbernal
p545
aVthe bay bridge
p546
aVred hill station
p547
aVhillside supper club
p548
aVflea market
p549
aVthe east bay
p550
aVbay
p551
aVbernal park
p552
aVst. mary 's
p553
aVthe bernal heights
p554
aVoakland
p555
aVfarmers market
p556
aVla corneta
p557
aVredfin
p558
aVharvest hills market
p559
aVbay area
p560
aVvalencia street
p561
aVel rio
p562
aVsandbox bakery
p563
aVthe bay area
p564
aVchurch street
p565
aVred hill
p566
aVsan francisco bay
p567
aVplace
p568
aVthe alemany farmer \u2019s market
p569
aVgood life grocery
p570
aVprecita
p571
aVthe alemany farmer 's
p572
aVthe front porch
p573
aVbernal heights &
p574
aVholy water
p575
aVbernal heights '
p576
aVsilicon valley
p577
aVbon appetit
p578
aVsandbox
p579
asVsouth of market
p580
(lp581
Vsoma
p582
aVunion square
p583
aVsf
p584
aVmoscone
p585
aVmission
p586
aVmoscone center
p587
aVembarcadero
p588
aVgiants
p589
aVat&t
p590
aVuber
p591
aVcaltrain
p592
aVsouth beach
p593
aVwhole foods
p594
aVat&t park
p595
aVsafeway
p596
aVmission bay
p597
aVthe moscone center
p598
aVairbnb
p599
aVthe ferry building
p600
aVbart
p601
aVmuni
p602
aVfinancial district
p603
aVsouth park
p604
aVdropbox
p605
aVneighborhood
p606
aVhayes valley
p607
aVbay bridge
p608
aVsilicon valley
p609
aVyerba buena gardens
p610
aVsquare
p611
aVcivic center
p612
aVsan francisco bay
p613
aVferry building
p614
aVmarket street
p615
aVsalesforce
p616
aVsf moma
p617
aVmoma
p618
aVsouth of market 's
p619
aVtarget
p620
aVmichelin
p621
aVat&t ball park
p622
aVthe financial district
p623
aVsfmoma
p624
aVvalencia
p625
aVcostco
p626
aVsf giants
p627
aVthe yerba buena
p628
aVwharf
p629
aVthe moscone convention center
p630
aVstarbucks
p631
aVfisherman
p632
aVthai
p633
aVmetreon
p634
aVthe bay bridge
p635
aVwestfield mall
p636
aVwestfield
p637
aVpowell street
p638
aVsffd
p639
aVmission district
p640
aVsan francisco 's
p641
aVmoscone conference center
p642
aVblue bottle
p643
aVferry building market place
p644
aVcalifornia
p645
aVbrannan
p646
aVconvenient
p647
aVsouthwestern
p648
aVsf police department
p649
aVeast bay
p650
aVnorth beach
p651
aVthe sf museum of modern art
p652
aVthe civic center
p653
aVthe golden gate bridge
p654
aVcity beer store
p655
aVcal train
p656
asVpotrero hill
p657
(lp658
Vmission
p659
aVsf
p660
aVwhole foods
p661
aVdogpatch
p662
aVsoma
p663
aV18th street
p664
aVfarley
p665
aVmission district
p666
aVgoat hill pizza
p667
aVsafeway
p668
aVpiccino
p669
aVsan francisco 's
p670
aVthe mission district
p671
aVcaltrain
p672
aVpotrero
p673
aVsilicon valley
p674
aVwhole foods market
p675
aVuber
p676
aVat&t park
p677
aVserpentine
p678
aVsan francisco bay
p679
aVthe potrero hill
p680
aVucsf mission bay
p681
aVmckinley square
p682
aVthe bay area
p683
aVat&t
p684
aVthe bay bridge
p685
aVvalencia
p686
aVsushi
p687
aVquiet
p688
asVpacific heights
p689
(lp690
Vfillmore street
p691
aVpresidio
p692
aVmarina
p693
aVfillmore
p694
aVsf
p695
aVunion street
p696
aVthe golden gate bridge
p697
aVlafayette
p698
aVsacramento street
p699
aVchestnut street
p700
aVsan francisco 's
p701
aVuber
p702
aVwhole foods
p703
aVcalifornia
p704
aVspqr
p705
aVpolk street
p706
aVpalace of fine arts
p707
aVpac heights
p708
aVgolden gate bridge
p709
aVunion square
p710
aVwharf
p711
aVsacramento
p712
aVpeet 's
p713
aVpresidio heights
p714
aVpresidio park
p715
aVbroadway street
p716
aVnopa
p717
aVthe bay area
p718
aVsan francisco bay
p719
aVcpmc
p720
aVlafayette park
p721
aVnorthern california
p722
asVwest of twin peaks
p723
(lp724
Vwest portal
p725
aVtwin peaks
p726
aVwhole foods
p727
aVocean beach
p728
aVbart
p729
aVmount davidson
p730
aVsafeway
p731
aVsf
p732
aVmission
p733
aVmuni
p734
aVvery
p735
aVglen park
p736
aVbalboa
p737
aVwest portal avenue
p738
aVgolden gate park
p739
aVmonterey
p740
aVocean ave
p741
aVtarget
p742
aVst. francis woods
p743
aVunion square
p744
aVglen park canyon
p745
aVpeninsula
p746
aVthai
p747
aVsan francisco 's
p748
aVocean
p749
asVvisitacion valley
p750
(lp751
Vsf
p752
as.